target datalayout = "e-m:e-p270:32:32-p271:32:32-p272:64:64-i64:64-i128:128-f80:128-n8:16:32:64-S128"
target triple = "x86_64-pc-linux-gnu"

; Function Attrs: inlinehint nounwind uwtable
define internal i32 @Extra_TruthWordNum(i32 noundef %0) #2 {
  %2 = alloca i32, align 4
  store i32 %0, ptr %2, align 4, !tbaa !3
  %3 = load i32, ptr %2, align 4, !tbaa !3
  %4 = icmp sle i32 %3, 5
  br i1 %4, label %5, label %6

5:                                                ; preds = %1
  br label %10

6:                                                ; preds = %1
  %7 = load i32, ptr %2, align 4, !tbaa !3
  %8 = sub nsw i32 %7, 5
  %9 = shl i32 1, %8
  br label %10

10:                                               ; preds = %6, %5
  %11 = phi i32 [ 1, %5 ], [ %9, %6 ]
  ret i32 %11
}

; Function Attrs: nounwind uwtable
define void @Extra_TruthMux(ptr noundef %0, ptr noundef %1, ptr noundef %2, i32 noundef %3, i32 noundef %4) #0 {
  %6 = alloca ptr, align 8
  %7 = alloca ptr, align 8
  %8 = alloca ptr, align 8
  %9 = alloca i32, align 4
  %10 = alloca i32, align 4
  %11 = alloca i32, align 4
  %12 = alloca i32, align 4
  %13 = alloca i32, align 4
  %14 = alloca i32, align 4
  %15 = alloca i32, align 4
  store ptr %0, ptr %6, align 8, !tbaa !10
  store ptr %1, ptr %7, align 8, !tbaa !10
  store ptr %2, ptr %8, align 8, !tbaa !10
  store i32 %3, ptr %9, align 4, !tbaa !3
  store i32 %4, ptr %10, align 4, !tbaa !3
  call void @llvm.lifetime.start.p0(i64 4, ptr %11) #5
  %16 = load i32, ptr %9, align 4, !tbaa !3
  %17 = call i32 @Extra_TruthWordNum(i32 noundef %16)
  store i32 %17, ptr %11, align 4, !tbaa !3
  call void @llvm.lifetime.start.p0(i64 4, ptr %12) #5
  call void @llvm.lifetime.start.p0(i64 4, ptr %13) #5
  call void @llvm.lifetime.start.p0(i64 4, ptr %14) #5
  %18 = load i32, ptr %10, align 4, !tbaa !3
  switch i32 %18, label %154 [
    i32 0, label %19
    i32 1, label %46
    i32 2, label %73
    i32 3, label %100
    i32 4, label %127
  ]

19:                                               ; preds = %5
  store i32 0, ptr %12, align 4, !tbaa !3
  br label %20

20:                                               ; preds = %42, %19
  %21 = load i32, ptr %12, align 4, !tbaa !3
  %22 = load i32, ptr %11, align 4, !tbaa !3
  %23 = icmp slt i32 %21, %22
  br i1 %23, label %24, label %45

24:                                               ; preds = %20
  %25 = load ptr, ptr %7, align 8, !tbaa !10
  %26 = load i32, ptr %12, align 4, !tbaa !3
  %27 = sext i32 %26 to i64
  %28 = getelementptr inbounds i32, ptr %25, i64 %27
  %29 = load i32, ptr %28, align 4, !tbaa !3
  %30 = and i32 %29, 1431655765
  %31 = load ptr, ptr %8, align 8, !tbaa !10
  %32 = load i32, ptr %12, align 4, !tbaa !3
  %33 = sext i32 %32 to i64
  %34 = getelementptr inbounds i32, ptr %31, i64 %33
  %35 = load i32, ptr %34, align 4, !tbaa !3
  %36 = and i32 %35, -1431655766
  %37 = or i32 %30, %36
  %38 = load ptr, ptr %6, align 8, !tbaa !10
  %39 = load i32, ptr %12, align 4, !tbaa !3
  %40 = sext i32 %39 to i64
  %41 = getelementptr inbounds i32, ptr %38, i64 %40
  store i32 %37, ptr %41, align 4, !tbaa !3
  br label %42

42:                                               ; preds = %24
  %43 = load i32, ptr %12, align 4, !tbaa !3
  %44 = add nsw i32 %43, 1
  store i32 %44, ptr %12, align 4, !tbaa !3
  br label %20, !llvm.loop !75

45:                                               ; preds = %20
  store i32 1, ptr %15, align 4
  br label %205

46:                                               ; preds = %5
  store i32 0, ptr %12, align 4, !tbaa !3
  br label %47

47:                                               ; preds = %69, %46
  %48 = load i32, ptr %12, align 4, !tbaa !3
  %49 = load i32, ptr %11, align 4, !tbaa !3
  %50 = icmp slt i32 %48, %49
  br i1 %50, label %51, label %72

51:                                               ; preds = %47
  %52 = load ptr, ptr %7, align 8, !tbaa !10
  %53 = load i32, ptr %12, align 4, !tbaa !3
  %54 = sext i32 %53 to i64
  %55 = getelementptr inbounds i32, ptr %52, i64 %54
  %56 = load i32, ptr %55, align 4, !tbaa !3
  %57 = and i32 %56, 858993459
  %58 = load ptr, ptr %8, align 8, !tbaa !10
  %59 = load i32, ptr %12, align 4, !tbaa !3
  %60 = sext i32 %59 to i64
  %61 = getelementptr inbounds i32, ptr %58, i64 %60
  %62 = load i32, ptr %61, align 4, !tbaa !3
  %63 = and i32 %62, -858993460
  %64 = or i32 %57, %63
  %65 = load ptr, ptr %6, align 8, !tbaa !10
  %66 = load i32, ptr %12, align 4, !tbaa !3
  %67 = sext i32 %66 to i64
  %68 = getelementptr inbounds i32, ptr %65, i64 %67
  store i32 %64, ptr %68, align 4, !tbaa !3
  br label %69

69:                                               ; preds = %51
  %70 = load i32, ptr %12, align 4, !tbaa !3
  %71 = add nsw i32 %70, 1
  store i32 %71, ptr %12, align 4, !tbaa !3
  br label %47, !llvm.loop !76

72:                                               ; preds = %47
  store i32 1, ptr %15, align 4
  br label %205

73:                                               ; preds = %5
  store i32 0, ptr %12, align 4, !tbaa !3
  br label %74

74:                                               ; preds = %96, %73
  %75 = load i32, ptr %12, align 4, !tbaa !3
  %76 = load i32, ptr %11, align 4, !tbaa !3
  %77 = icmp slt i32 %75, %76
  br i1 %77, label %78, label %99

78:                                               ; preds = %74
  %79 = load ptr, ptr %7, align 8, !tbaa !10
  %80 = load i32, ptr %12, align 4, !tbaa !3
  %81 = sext i32 %80 to i64
  %82 = getelementptr inbounds i32, ptr %79, i64 %81
  %83 = load i32, ptr %82, align 4, !tbaa !3
  %84 = and i32 %83, 252645135
  %85 = load ptr, ptr %8, align 8, !tbaa !10
  %86 = load i32, ptr %12, align 4, !tbaa !3
  %87 = sext i32 %86 to i64
  %88 = getelementptr inbounds i32, ptr %85, i64 %87
  %89 = load i32, ptr %88, align 4, !tbaa !3
  %90 = and i32 %89, -252645136
  %91 = or i32 %84, %90
  %92 = load ptr, ptr %6, align 8, !tbaa !10
  %93 = load i32, ptr %12, align 4, !tbaa !3
  %94 = sext i32 %93 to i64
  %95 = getelementptr inbounds i32, ptr %92, i64 %94
  store i32 %91, ptr %95, align 4, !tbaa !3
  br label %96

96:                                               ; preds = %78
  %97 = load i32, ptr %12, align 4, !tbaa !3
  %98 = add nsw i32 %97, 1
  store i32 %98, ptr %12, align 4, !tbaa !3
  br label %74, !llvm.loop !77

99:                                               ; preds = %74
  store i32 1, ptr %15, align 4
  br label %205

100:                                              ; preds = %5
  store i32 0, ptr %12, align 4, !tbaa !3
  br label %101

101:                                              ; preds = %123, %100
  %102 = load i32, ptr %12, align 4, !tbaa !3
  %103 = load i32, ptr %11, align 4, !tbaa !3
  %104 = icmp slt i32 %102, %103
  br i1 %104, label %105, label %126

105:                                              ; preds = %101
  %106 = load ptr, ptr %7, align 8, !tbaa !10
  %107 = load i32, ptr %12, align 4, !tbaa !3
  %108 = sext i32 %107 to i64
  %109 = getelementptr inbounds i32, ptr %106, i64 %108
  %110 = load i32, ptr %109, align 4, !tbaa !3
  %111 = and i32 %110, 16711935
  %112 = load ptr, ptr %8, align 8, !tbaa !10
  %113 = load i32, ptr %12, align 4, !tbaa !3
  %114 = sext i32 %113 to i64
  %115 = getelementptr inbounds i32, ptr %112, i64 %114
  %116 = load i32, ptr %115, align 4, !tbaa !3
  %117 = and i32 %116, -16711936
  %118 = or i32 %111, %117
  %119 = load ptr, ptr %6, align 8, !tbaa !10
  %120 = load i32, ptr %12, align 4, !tbaa !3
  %121 = sext i32 %120 to i64
  %122 = getelementptr inbounds i32, ptr %119, i64 %121
  store i32 %118, ptr %122, align 4, !tbaa !3
  br label %123

123:                                              ; preds = %105
  %124 = load i32, ptr %12, align 4, !tbaa !3
  %125 = add nsw i32 %124, 1
  store i32 %125, ptr %12, align 4, !tbaa !3
  br label %101, !llvm.loop !78

126:                                              ; preds = %101
  store i32 1, ptr %15, align 4
  br label %205

127:                                              ; preds = %5
  store i32 0, ptr %12, align 4, !tbaa !3
  br label %128

128:                                              ; preds = %150, %127
  %129 = load i32, ptr %12, align 4, !tbaa !3
  %130 = load i32, ptr %11, align 4, !tbaa !3
  %131 = icmp slt i32 %129, %130
  br i1 %131, label %132, label %153

132:                                              ; preds = %128
  %133 = load ptr, ptr %7, align 8, !tbaa !10
  %134 = load i32, ptr %12, align 4, !tbaa !3
  %135 = sext i32 %134 to i64
  %136 = getelementptr inbounds i32, ptr %133, i64 %135
  %137 = load i32, ptr %136, align 4, !tbaa !3
  %138 = and i32 %137, 65535
  %139 = load ptr, ptr %8, align 8, !tbaa !10
  %140 = load i32, ptr %12, align 4, !tbaa !3
  %141 = sext i32 %140 to i64
  %142 = getelementptr inbounds i32, ptr %139, i64 %141
  %143 = load i32, ptr %142, align 4, !tbaa !3
  %144 = and i32 %143, -65536
  %145 = or i32 %138, %144
  %146 = load ptr, ptr %6, align 8, !tbaa !10
  %147 = load i32, ptr %12, align 4, !tbaa !3
  %148 = sext i32 %147 to i64
  %149 = getelementptr inbounds i32, ptr %146, i64 %148
  store i32 %145, ptr %149, align 4, !tbaa !3
  br label %150

150:                                              ; preds = %132
  %151 = load i32, ptr %12, align 4, !tbaa !3
  %152 = add nsw i32 %151, 1
  store i32 %152, ptr %12, align 4, !tbaa !3
  br label %128, !llvm.loop !79

153:                                              ; preds = %128
  store i32 1, ptr %15, align 4
  br label %205

154:                                              ; preds = %5
  %155 = load i32, ptr %10, align 4, !tbaa !3
  %156 = sub nsw i32 %155, 5
  %157 = shl i32 1, %156
  store i32 %157, ptr %14, align 4, !tbaa !3
  store i32 0, ptr %13, align 4, !tbaa !3
  br label %158

158:                                              ; preds = %199, %154
  %159 = load i32, ptr %13, align 4, !tbaa !3
  %160 = load i32, ptr %11, align 4, !tbaa !3
  %161 = icmp slt i32 %159, %160
  br i1 %161, label %162, label %204

162:                                              ; preds = %158
  store i32 0, ptr %12, align 4, !tbaa !3
  br label %163

163:                                              ; preds = %190, %162
  %164 = load i32, ptr %12, align 4, !tbaa !3
  %165 = load i32, ptr %14, align 4, !tbaa !3
  %166 = icmp slt i32 %164, %165
  br i1 %166, label %167, label %193

167:                                              ; preds = %163
  %168 = load ptr, ptr %7, align 8, !tbaa !10
  %169 = load i32, ptr %12, align 4, !tbaa !3
  %170 = sext i32 %169 to i64
  %171 = getelementptr inbounds i32, ptr %168, i64 %170
  %172 = load i32, ptr %171, align 4, !tbaa !3
  %173 = load ptr, ptr %6, align 8, !tbaa !10
  %174 = load i32, ptr %12, align 4, !tbaa !3
  %175 = sext i32 %174 to i64
  %176 = getelementptr inbounds i32, ptr %173, i64 %175
  store i32 %172, ptr %176, align 4, !tbaa !3
  %177 = load ptr, ptr %8, align 8, !tbaa !10
  %178 = load i32, ptr %14, align 4, !tbaa !3
  %179 = load i32, ptr %12, align 4, !tbaa !3
  %180 = add nsw i32 %178, %179
  %181 = sext i32 %180 to i64
  %182 = getelementptr inbounds i32, ptr %177, i64 %181
  %183 = load i32, ptr %182, align 4, !tbaa !3
  %184 = load ptr, ptr %6, align 8, !tbaa !10
  %185 = load i32, ptr %14, align 4, !tbaa !3
  %186 = load i32, ptr %12, align 4, !tbaa !3
  %187 = add nsw i32 %185, %186
  %188 = sext i32 %187 to i64
  %189 = getelementptr inbounds i32, ptr %184, i64 %188
  store i32 %183, ptr %189, align 4, !tbaa !3
  br label %190

190:                                              ; preds = %167
  %191 = load i32, ptr %12, align 4, !tbaa !3
  %192 = add nsw i32 %191, 1
  store i32 %192, ptr %12, align 4, !tbaa !3
  br label %163, !llvm.loop !80

193:                                              ; preds = %163
  %194 = load i32, ptr %14, align 4, !tbaa !3
  %195 = mul nsw i32 2, %194
  %196 = load ptr, ptr %6, align 8, !tbaa !10
  %197 = sext i32 %195 to i64
  %198 = getelementptr inbounds i32, ptr %196, i64 %197
  store ptr %198, ptr %6, align 8, !tbaa !10
  br label %199

199:                                              ; preds = %193
  %200 = load i32, ptr %14, align 4, !tbaa !3
  %201 = mul nsw i32 2, %200
  %202 = load i32, ptr %13, align 4, !tbaa !3
  %203 = add nsw i32 %202, %201
  store i32 %203, ptr %13, align 4, !tbaa !3
  br label %158, !llvm.loop !81

204:                                              ; preds = %158
  store i32 1, ptr %15, align 4
  br label %205

205:                                              ; preds = %204, %153, %126, %99, %72, %45
  call void @llvm.lifetime.end.p0(i64 4, ptr %14) #5
  call void @llvm.lifetime.end.p0(i64 4, ptr %13) #5
  call void @llvm.lifetime.end.p0(i64 4, ptr %12) #5
  call void @llvm.lifetime.end.p0(i64 4, ptr %11) #5
  ret void
}