; Function Attrs: nofree norecurse nosync nounwind memory(argmem: readwrite) uwtable
define void @Extra_TruthMux(ptr noundef writeonly captures(none) %0, ptr noundef readonly captures(none) %1, ptr noundef readonly captures(none) %2, i32 noundef %3, i32 noundef %4) local_unnamed_addr #2 {
  %6 = icmp slt i32 %3, 6
  %7 = add nsw i32 %3, -5
  %8 = shl nuw i32 1, %7
  %9 = select i1 %6, i32 1, i32 %8
  switch i32 %4, label %55 [
    i32 0, label %.preheader70
    i32 1, label %.preheader72
    i32 2, label %.preheader74
    i32 3, label %.preheader76
    i32 4, label %.preheader78
  ]

.preheader78:                                     ; preds = %5
  %10 = icmp sgt i32 %9, 0
  br i1 %10, label %.lr.ph.preheader, label %.loopexit

.lr.ph.preheader:                                 ; preds = %.preheader78
  %wide.trip.count = zext nneg i32 %9 to i64
  br label %.lr.ph

.preheader76:                                     ; preds = %5
  %11 = icmp sgt i32 %9, 0
  br i1 %11, label %.lr.ph82.preheader, label %.loopexit

.lr.ph82.preheader:                               ; preds = %.preheader76
  %wide.trip.count103 = zext nneg i32 %9 to i64
  br label %.lr.ph82

.preheader74:                                     ; preds = %5
  %12 = icmp sgt i32 %9, 0
  br i1 %12, label %.lr.ph84.preheader, label %.loopexit

.lr.ph84.preheader:                               ; preds = %.preheader74
  %wide.trip.count108 = zext nneg i32 %9 to i64
  br label %.lr.ph84

.preheader72:                                     ; preds = %5
  %13 = icmp sgt i32 %9, 0
  br i1 %13, label %.lr.ph86.preheader, label %.loopexit

.lr.ph86.preheader:                               ; preds = %.preheader72
  %wide.trip.count113 = zext nneg i32 %9 to i64
  br label %.lr.ph86

.preheader70:                                     ; preds = %5
  %14 = icmp sgt i32 %9, 0
  br i1 %14, label %.lr.ph88.preheader, label %.loopexit

.lr.ph88.preheader:                               ; preds = %.preheader70
  %wide.trip.count118 = zext nneg i32 %9 to i64
  br label %.lr.ph88

.lr.ph88:                                         ; preds = %.lr.ph88.preheader, %.lr.ph88
  %indvars.iv115 = phi i64 [ 0, %.lr.ph88.preheader ], [ %indvars.iv.next116, %.lr.ph88 ]
  %15 = getelementptr inbounds nuw i32, ptr %1, i64 %indvars.iv115
  %16 = load i32, ptr %15, align 4, !tbaa !3
  %17 = and i32 %16, 1431655765
  %18 = getelementptr inbounds nuw i32, ptr %2, i64 %indvars.iv115
  %19 = load i32, ptr %18, align 4, !tbaa !3
  %20 = and i32 %19, -1431655766
  %21 = or disjoint i32 %20, %17
  %22 = getelementptr inbounds nuw i32, ptr %0, i64 %indvars.iv115
  store i32 %21, ptr %22, align 4, !tbaa !3
  %indvars.iv.next116 = add nuw nsw i64 %indvars.iv115, 1
  %exitcond119.not = icmp eq i64 %indvars.iv.next116, %wide.trip.count118
  br i1 %exitcond119.not, label %.loopexit, label %.lr.ph88, !llvm.loop !73

.lr.ph86:                                         ; preds = %.lr.ph86.preheader, %.lr.ph86
  %indvars.iv110 = phi i64 [ 0, %.lr.ph86.preheader ], [ %indvars.iv.next111, %.lr.ph86 ]
  %23 = getelementptr inbounds nuw i32, ptr %1, i64 %indvars.iv110
  %24 = load i32, ptr %23, align 4, !tbaa !3
  %25 = and i32 %24, 858993459
  %26 = getelementptr inbounds nuw i32, ptr %2, i64 %indvars.iv110
  %27 = load i32, ptr %26, align 4, !tbaa !3
  %28 = and i32 %27, -858993460
  %29 = or disjoint i32 %28, %25
  %30 = getelementptr inbounds nuw i32, ptr %0, i64 %indvars.iv110
  store i32 %29, ptr %30, align 4, !tbaa !3
  %indvars.iv.next111 = add nuw nsw i64 %indvars.iv110, 1
  %exitcond114.not = icmp eq i64 %indvars.iv.next111, %wide.trip.count113
  br i1 %exitcond114.not, label %.loopexit, label %.lr.ph86, !llvm.loop !74

.lr.ph84:                                         ; preds = %.lr.ph84.preheader, %.lr.ph84
  %indvars.iv105 = phi i64 [ 0, %.lr.ph84.preheader ], [ %indvars.iv.next106, %.lr.ph84 ]
  %31 = getelementptr inbounds nuw i32, ptr %1, i64 %indvars.iv105
  %32 = load i32, ptr %31, align 4, !tbaa !3
  %33 = and i32 %32, 252645135
  %34 = getelementptr inbounds nuw i32, ptr %2, i64 %indvars.iv105
  %35 = load i32, ptr %34, align 4, !tbaa !3
  %36 = and i32 %35, -252645136
  %37 = or disjoint i32 %36, %33
  %38 = getelementptr inbounds nuw i32, ptr %0, i64 %indvars.iv105
  store i32 %37, ptr %38, align 4, !tbaa !3
  %indvars.iv.next106 = add nuw nsw i64 %indvars.iv105, 1
  %exitcond109.not = icmp eq i64 %indvars.iv.next106, %wide.trip.count108
  br i1 %exitcond109.not, label %.loopexit, label %.lr.ph84, !llvm.loop !75

.lr.ph82:                                         ; preds = %.lr.ph82.preheader, %.lr.ph82
  %indvars.iv100 = phi i64 [ 0, %.lr.ph82.preheader ], [ %indvars.iv.next101, %.lr.ph82 ]
  %39 = getelementptr inbounds nuw i32, ptr %1, i64 %indvars.iv100
  %40 = load i32, ptr %39, align 4, !tbaa !3
  %41 = and i32 %40, 16711935
  %42 = getelementptr inbounds nuw i32, ptr %2, i64 %indvars.iv100
  %43 = load i32, ptr %42, align 4, !tbaa !3
  %44 = and i32 %43, -16711936
  %45 = or disjoint i32 %44, %41
  %46 = getelementptr inbounds nuw i32, ptr %0, i64 %indvars.iv100
  store i32 %45, ptr %46, align 4, !tbaa !3
  %indvars.iv.next101 = add nuw nsw i64 %indvars.iv100, 1
  %exitcond104.not = icmp eq i64 %indvars.iv.next101, %wide.trip.count103
  br i1 %exitcond104.not, label %.loopexit, label %.lr.ph82, !llvm.loop !76

.lr.ph:                                           ; preds = %.lr.ph.preheader, %.lr.ph
  %indvars.iv = phi i64 [ 0, %.lr.ph.preheader ], [ %indvars.iv.next, %.lr.ph ]
  %47 = getelementptr inbounds nuw i32, ptr %1, i64 %indvars.iv
  %48 = load i32, ptr %47, align 4, !tbaa !3
  %49 = and i32 %48, 65535
  %50 = getelementptr inbounds nuw i32, ptr %2, i64 %indvars.iv
  %51 = load i32, ptr %50, align 4, !tbaa !3
  %52 = and i32 %51, -65536
  %53 = or disjoint i32 %52, %49
  %54 = getelementptr inbounds nuw i32, ptr %0, i64 %indvars.iv
  store i32 %53, ptr %54, align 4, !tbaa !3
  %indvars.iv.next = add nuw nsw i64 %indvars.iv, 1
  %exitcond.not = icmp eq i64 %indvars.iv.next, %wide.trip.count
  br i1 %exitcond.not, label %.loopexit, label %.lr.ph, !llvm.loop !77

55:                                               ; preds = %5
  %56 = add nsw i32 %4, -5
  %57 = shl nuw i32 1, %56
  %58 = icmp sgt i32 %9, 0
  br i1 %58, label %.preheader.lr.ph, label %.loopexit

.preheader.lr.ph:                                 ; preds = %55
  %.not = icmp eq i32 %56, 31
  %59 = shl i32 2, %56
  %60 = sext i32 %59 to i64
  br i1 %.not, label %.loopexit, label %.preheader.us.preheader

.preheader.us.preheader:                          ; preds = %.preheader.lr.ph
  %61 = sext i32 %57 to i64
  %smax = tail call i32 @llvm.smax.i32(i32 %57, i32 1)
  %wide.trip.count123 = zext nneg i32 %smax to i64
  br label %.preheader.us

.preheader.us:                                    ; preds = %.preheader.us.preheader, %._crit_edge.us
  %.092.us = phi ptr [ %70, %._crit_edge.us ], [ %0, %.preheader.us.preheader ]
  %.06691.us = phi i32 [ %71, %._crit_edge.us ], [ 0, %.preheader.us.preheader ]
  br label %62

62:                                               ; preds = %.preheader.us, %62
  %indvars.iv120 = phi i64 [ 0, %.preheader.us ], [ %indvars.iv.next121, %62 ]
  %63 = getelementptr inbounds nuw i32, ptr %1, i64 %indvars.iv120
  %64 = load i32, ptr %63, align 4, !tbaa !3
  %65 = getelementptr inbounds nuw i32, ptr %.092.us, i64 %indvars.iv120
  store i32 %64, ptr %65, align 4, !tbaa !3
  %66 = add nuw nsw i64 %indvars.iv120, %61
  %67 = getelementptr inbounds i32, ptr %2, i64 %66
  %68 = load i32, ptr %67, align 4, !tbaa !3
  %69 = getelementptr inbounds i32, ptr %.092.us, i64 %66
  store i32 %68, ptr %69, align 4, !tbaa !3
  %indvars.iv.next121 = add nuw nsw i64 %indvars.iv120, 1
  %exitcond124.not = icmp eq i64 %indvars.iv.next121, %wide.trip.count123
  br i1 %exitcond124.not, label %._crit_edge.us, label %62, !llvm.loop !78

._crit_edge.us:                                   ; preds = %62
  %70 = getelementptr inbounds i32, ptr %.092.us, i64 %60
  %71 = add nsw i32 %.06691.us, %59
  %72 = icmp slt i32 %71, %9
  br i1 %72, label %.preheader.us, label %.loopexit, !llvm.loop !79

.loopexit:                                        ; preds = %.lr.ph, %.lr.ph82, %.lr.ph84, %.lr.ph86, %.lr.ph88, %._crit_edge.us, %.preheader.lr.ph, %.preheader78, %.preheader76, %.preheader74, %.preheader72, %.preheader70, %55
  ret void
}